target datalayout = "e-m:e-p270:32:32-p271:32:32-p272:64:64-i64:64-i128:128-f80:128-n8:16:32:64-S128"
target triple = "x86_64-pc-linux-gnu"

%struct.decNumber = type { i32, i32, i8, [1 x i8] }

; Function Attrs: mustprogress nounwind uwtable
define internal noundef i32 @_ZL12decGetDigitsPhi(ptr noundef %0, i32 noundef %1) #2 {
  %3 = alloca ptr, align 8
  %4 = alloca i32, align 4
  %5 = alloca ptr, align 8
  %6 = alloca i32, align 4
  store ptr %0, ptr %3, align 8, !tbaa !11
  store i32 %1, ptr %4, align 4, !tbaa !7
  call void @llvm.lifetime.start.p0(i64 8, ptr %5) #8
  %7 = load ptr, ptr %3, align 8, !tbaa !11
  %8 = load i32, ptr %4, align 4, !tbaa !7
  %9 = sub nsw i32 %8, 1
  %10 = sext i32 %9 to i64
  %11 = getelementptr inbounds i8, ptr %7, i64 %10
  store ptr %11, ptr %5, align 8, !tbaa !11
  call void @llvm.lifetime.start.p0(i64 4, ptr %6) #8
  %12 = load i32, ptr %4, align 4, !tbaa !7
  %13 = sub nsw i32 %12, 1
  %14 = mul nsw i32 %13, 1
  %15 = add nsw i32 %14, 1
  store i32 %15, ptr %6, align 4, !tbaa !7
  br label %16

16:                                               ; preds = %33, %2
  %17 = load ptr, ptr %5, align 8, !tbaa !11
  %18 = load ptr, ptr %3, align 8, !tbaa !11
  %19 = icmp uge ptr %17, %18
  br i1 %19, label %20, label %36

20:                                               ; preds = %16
  %21 = load ptr, ptr %5, align 8, !tbaa !11
  %22 = load i8, ptr %21, align 1, !tbaa !13
  %23 = zext i8 %22 to i32
  %24 = icmp eq i32 %23, 0
  br i1 %24, label %25, label %32

25:                                               ; preds = %20
  %26 = load i32, ptr %6, align 4, !tbaa !7
  %27 = icmp eq i32 %26, 1
  br i1 %27, label %28, label %29

28:                                               ; preds = %25
  br label %36

29:                                               ; preds = %25
  %30 = load i32, ptr %6, align 4, !tbaa !7
  %31 = sub nsw i32 %30, 1
  store i32 %31, ptr %6, align 4, !tbaa !7
  br label %33

32:                                               ; preds = %20
  br label %36

33:                                               ; preds = %29
  %34 = load ptr, ptr %5, align 8, !tbaa !11
  %35 = getelementptr inbounds i8, ptr %34, i32 -1
  store ptr %35, ptr %5, align 8, !tbaa !11
  br label %16, !llvm.loop !18

36:                                               ; preds = %32, %28, %16
  %37 = load i32, ptr %6, align 4, !tbaa !7
  call void @llvm.lifetime.end.p0(i64 4, ptr %6) #8
  call void @llvm.lifetime.end.p0(i64 8, ptr %5) #8
  ret i32 %37
}

; Function Attrs: mustprogress nounwind uwtable
define ptr @uprv_decNumberZero_77(ptr noundef %0) #2 {
  %2 = alloca ptr, align 8
  store ptr %0, ptr %2, align 8, !tbaa !3
  %3 = load ptr, ptr %2, align 8, !tbaa !3
  %4 = getelementptr inbounds nuw %struct.decNumber, ptr %3, i32 0, i32 2
  store i8 0, ptr %4, align 4, !tbaa !9
  %5 = load ptr, ptr %2, align 8, !tbaa !3
  %6 = getelementptr inbounds nuw %struct.decNumber, ptr %5, i32 0, i32 1
  store i32 0, ptr %6, align 4, !tbaa !17
  %7 = load ptr, ptr %2, align 8, !tbaa !3
  %8 = getelementptr inbounds nuw %struct.decNumber, ptr %7, i32 0, i32 0
  store i32 1, ptr %8, align 4, !tbaa !16
  %9 = load ptr, ptr %2, align 8, !tbaa !3
  %10 = getelementptr inbounds nuw %struct.decNumber, ptr %9, i32 0, i32 3
  %11 = getelementptr inbounds [1 x i8], ptr %10, i64 0, i64 0
  store i8 0, ptr %11, align 1, !tbaa !13
  %12 = load ptr, ptr %2, align 8, !tbaa !3
  ret ptr %12
}

; Function Attrs: mustprogress uwtable
define ptr @uprv_decNumberFromUInt32_77(ptr noundef %0, i32 noundef %1) #0 {
  %3 = alloca ptr, align 8
  %4 = alloca ptr, align 8
  %5 = alloca i32, align 4
  %6 = alloca ptr, align 8
  %7 = alloca i32, align 4
  store ptr %0, ptr %4, align 8, !tbaa !3
  store i32 %1, ptr %5, align 4, !tbaa !7
  call void @llvm.lifetime.start.p0(i64 8, ptr %6) #8
  %8 = load ptr, ptr %4, align 8, !tbaa !3
  %9 = call ptr @uprv_decNumberZero_77(ptr noundef %8)
  %10 = load i32, ptr %5, align 4, !tbaa !7
  %11 = icmp eq i32 %10, 0
  br i1 %11, label %12, label %14

12:                                               ; preds = %2
  %13 = load ptr, ptr %4, align 8, !tbaa !3
  store ptr %13, ptr %3, align 8
  store i32 1, ptr %7, align 4
  br label %47

14:                                               ; preds = %2
  %15 = load ptr, ptr %4, align 8, !tbaa !3
  %16 = getelementptr inbounds nuw %struct.decNumber, ptr %15, i32 0, i32 3
  %17 = getelementptr inbounds [1 x i8], ptr %16, i64 0, i64 0
  store ptr %17, ptr %6, align 8, !tbaa !11
  br label %18

18:                                               ; preds = %28, %14
  %19 = load i32, ptr %5, align 4, !tbaa !7
  %20 = icmp ugt i32 %19, 0
  br i1 %20, label %21, label %31

21:                                               ; preds = %18
  %22 = load i32, ptr %5, align 4, !tbaa !7
  %23 = urem i32 %22, 10
  %24 = trunc i32 %23 to i8
  %25 = load ptr, ptr %6, align 8, !tbaa !11
  store i8 %24, ptr %25, align 1, !tbaa !13
  %26 = load i32, ptr %5, align 4, !tbaa !7
  %27 = udiv i32 %26, 10
  store i32 %27, ptr %5, align 4, !tbaa !7
  br label %28

28:                                               ; preds = %21
  %29 = load ptr, ptr %6, align 8, !tbaa !11
  %30 = getelementptr inbounds nuw i8, ptr %29, i32 1
  store ptr %30, ptr %6, align 8, !tbaa !11
  br label %18, !llvm.loop !14

31:                                               ; preds = %18
  %32 = load ptr, ptr %4, align 8, !tbaa !3
  %33 = getelementptr inbounds nuw %struct.decNumber, ptr %32, i32 0, i32 3
  %34 = getelementptr inbounds [1 x i8], ptr %33, i64 0, i64 0
  %35 = load ptr, ptr %6, align 8, !tbaa !11
  %36 = load ptr, ptr %4, align 8, !tbaa !3
  %37 = getelementptr inbounds nuw %struct.decNumber, ptr %36, i32 0, i32 3
  %38 = getelementptr inbounds [1 x i8], ptr %37, i64 0, i64 0
  %39 = ptrtoint ptr %35 to i64
  %40 = ptrtoint ptr %38 to i64
  %41 = sub i64 %39, %40
  %42 = trunc i64 %41 to i32
  %43 = call noundef i32 @_ZL12decGetDigitsPhi(ptr noundef %34, i32 noundef %42)
  %44 = load ptr, ptr %4, align 8, !tbaa !3
  %45 = getelementptr inbounds nuw %struct.decNumber, ptr %44, i32 0, i32 0
  store i32 %43, ptr %45, align 4, !tbaa !16
  %46 = load ptr, ptr %4, align 8, !tbaa !3
  store ptr %46, ptr %3, align 8
  store i32 1, ptr %7, align 4
  br label %47

47:                                               ; preds = %31, %12
  call void @llvm.lifetime.end.p0(i64 8, ptr %6) #8
  %48 = load ptr, ptr %3, align 8
  ret ptr %48
}