; Function Attrs: mustprogress nofree norecurse nosync nounwind memory(argmem: readwrite) uwtable
define noundef ptr @uprv_decNumberFromUInt32_77(ptr noundef returned initializes((0, 10)) %0, i32 noundef %1) local_unnamed_addr #0 {
  %3 = getelementptr inbounds nuw i8, ptr %0, i64 8
  store i8 0, ptr %3, align 4, !tbaa !3
  %4 = getelementptr inbounds nuw i8, ptr %0, i64 4
  store i32 0, ptr %4, align 4, !tbaa !8
  store i32 1, ptr %0, align 4, !tbaa !9
  %5 = getelementptr inbounds nuw i8, ptr %0, i64 9
  store i8 0, ptr %5, align 1, !tbaa !10
  %6 = icmp eq i32 %1, 0
  br i1 %6, label %23, label %.preheader

.preheader:                                       ; preds = %2, %.preheader
  %.018 = phi ptr [ %10, %.preheader ], [ %5, %2 ]
  %.01417 = phi i32 [ %9, %.preheader ], [ %1, %2 ]
  %7 = urem i32 %.01417, 10
  %8 = trunc nuw nsw i32 %7 to i8
  store i8 %8, ptr %.018, align 1, !tbaa !10
  %9 = udiv i32 %.01417, 10
  %10 = getelementptr inbounds nuw i8, ptr %.018, i64 1
  %.not = icmp ult i32 %.01417, 10
  br i1 %.not, label %11, label %.preheader, !llvm.loop !11

11:                                               ; preds = %.preheader
  %12 = ptrtoint ptr %10 to i64
  %13 = ptrtoint ptr %5 to i64
  %14 = sub i64 %12, %13
  %15 = trunc i64 %14 to i32
  %sext = shl i64 %14, 32
  %16 = ashr exact i64 %sext, 32
  %17 = getelementptr i8, ptr %5, i64 %16
  %.01011.i = getelementptr i8, ptr %17, i64 -1
  %.not12.i = icmp ult ptr %.01011.i, %5
  br i1 %.not12.i, label %_ZL12decGetDigitsPhi.exit, label %.lr.ph.i

.lr.ph.i:                                         ; preds = %11, %21
  %.01014.i = phi ptr [ %.010.i, %21 ], [ %.01011.i, %11 ]
  %.013.i = phi i32 [ %22, %21 ], [ %15, %11 ]
  %18 = load i8, ptr %.01014.i, align 1, !tbaa !10
  %19 = icmp ne i8 %18, 0
  %20 = icmp eq i32 %.013.i, 1
  %or.cond.i = select i1 %19, i1 true, i1 %20
  br i1 %or.cond.i, label %_ZL12decGetDigitsPhi.exit, label %21

21:                                               ; preds = %.lr.ph.i
  %22 = add nsw i32 %.013.i, -1
  %.010.i = getelementptr i8, ptr %.01014.i, i64 -1
  %.not.i = icmp ult ptr %.010.i, %5
  br i1 %.not.i, label %_ZL12decGetDigitsPhi.exit, label %.lr.ph.i, !llvm.loop !13

_ZL12decGetDigitsPhi.exit:                        ; preds = %.lr.ph.i, %21, %11
  %.0.lcssa.i = phi i32 [ %15, %11 ], [ 0, %21 ], [ %.013.i, %.lr.ph.i ]
  store i32 %.0.lcssa.i, ptr %0, align 4, !tbaa !9
  br label %23

23:                                               ; preds = %2, %_ZL12decGetDigitsPhi.exit
  ret ptr %0
}